target datalayout = "e-m:e-p270:32:32-p271:32:32-p272:64:64-i64:64-i128:128-f80:128-n8:16:32:64-S128"
target triple = "x86_64-pc-linux-gnu"

%class.btConvexConcaveCollisionAlgorithm = type <{ %class.btActivatingCollisionAlgorithm, %class.btConvexTriangleCallback, i8, [7 x i8] }>
%class.btActivatingCollisionAlgorithm = type { %class.btCollisionAlgorithm }
%class.btCollisionAlgorithm = type { ptr, ptr }
%class.btConvexTriangleCallback = type { %class.btTriangleCallback, %class.btVector3, %class.btVector3, ptr, ptr, ptr, ptr, ptr, float, i32, ptr }
%class.btTriangleCallback = type { ptr }
%class.btVector3 = type { [4 x float] }
%struct.btCollisionAlgorithmConstructionInfo = type { ptr, ptr }

@_ZN24btConvexTriangleCallbackC1EP12btDispatcherPK24btCollisionObjectWrapperS4_b = dso_local unnamed_addr alias void (ptr, ptr, ptr, ptr, i1), ptr @_ZN24btConvexTriangleCallbackC2EP12btDispatcherPK24btCollisionObjectWrapperS4_b

; Function Attrs: mustprogress uwtable
define dso_local void @_ZN33btConvexConcaveCollisionAlgorithmC2ERK36btCollisionAlgorithmConstructionInfoPK24btCollisionObjectWrapperS5_b(ptr noundef nonnull align 8 dereferenceable(113) %0, ptr noundef nonnull align 8 dereferenceable(16) %1, ptr noundef %2, ptr noundef %3, i1 noundef zeroext %4) unnamed_addr #2 align 2 personality ptr @__gxx_personality_v0 {
  %6 = alloca ptr, align 8
  %7 = alloca ptr, align 8
  %8 = alloca ptr, align 8
  %9 = alloca ptr, align 8
  %10 = alloca i8, align 1
  %11 = alloca ptr, align 8
  %12 = alloca i32, align 4
  store ptr %0, ptr %6, align 8, !tbaa !12
  store ptr %1, ptr %7, align 8, !tbaa !14
  store ptr %2, ptr %8, align 8, !tbaa !16
  store ptr %3, ptr %9, align 8, !tbaa !16
  %13 = zext i1 %4 to i8
  store i8 %13, ptr %10, align 1, !tbaa !18
  %14 = load ptr, ptr %6, align 8
  %15 = load ptr, ptr %7, align 8, !tbaa !14
  %16 = load ptr, ptr %8, align 8, !tbaa !16
  %17 = load ptr, ptr %9, align 8, !tbaa !16
  call void @_ZN30btActivatingCollisionAlgorithmC2ERK36btCollisionAlgorithmConstructionInfoPK24btCollisionObjectWrapperS5_(ptr noundef nonnull align 8 dereferenceable(16) %14, ptr noundef nonnull align 8 dereferenceable(16) %15, ptr noundef %16, ptr noundef %17)
  store ptr getelementptr inbounds inrange(-16, 40) ({ [7 x ptr] }, ptr @_ZTV33btConvexConcaveCollisionAlgorithm, i32 0, i32 0, i32 2), ptr %14, align 8, !tbaa !20
  %18 = getelementptr inbounds nuw %class.btConvexConcaveCollisionAlgorithm, ptr %14, i32 0, i32 1
  %19 = load ptr, ptr %7, align 8, !tbaa !14
  %20 = getelementptr inbounds nuw %struct.btCollisionAlgorithmConstructionInfo, ptr %19, i32 0, i32 0
  %21 = load ptr, ptr %20, align 8, !tbaa !22
  %22 = load ptr, ptr %8, align 8, !tbaa !16
  %23 = load ptr, ptr %9, align 8, !tbaa !16
  %24 = load i8, ptr %10, align 1, !tbaa !18, !range !26, !noundef !27
  %25 = trunc i8 %24 to i1
  invoke void @_ZN24btConvexTriangleCallbackC1EP12btDispatcherPK24btCollisionObjectWrapperS4_b(ptr noundef nonnull align 8 dereferenceable(96) %18, ptr noundef %21, ptr noundef %22, ptr noundef %23, i1 noundef zeroext %25)
          to label %26 unwind label %31

26:                                               ; preds = %5
  %27 = getelementptr inbounds nuw %class.btConvexConcaveCollisionAlgorithm, ptr %14, i32 0, i32 2
  %28 = load i8, ptr %10, align 1, !tbaa !18, !range !26, !noundef !27
  %29 = trunc i8 %28 to i1
  %30 = zext i1 %29 to i8
  store i8 %30, ptr %27, align 8, !tbaa !28
  ret void

31:                                               ; preds = %5
  %32 = landingpad { ptr, i32 }
          cleanup
  %33 = extractvalue { ptr, i32 } %32, 0
  store ptr %33, ptr %11, align 8
  %34 = extractvalue { ptr, i32 } %32, 1
  store i32 %34, ptr %12, align 4
  call void @_ZN30btActivatingCollisionAlgorithmD2Ev(ptr noundef nonnull align 8 dereferenceable(16) %14) #14
  br label %35

35:                                               ; preds = %31
  %36 = load ptr, ptr %11, align 8
  %37 = load i32, ptr %12, align 4
  %38 = insertvalue { ptr, i32 } poison, ptr %36, 0
  %39 = insertvalue { ptr, i32 } %38, i32 %37, 1
  resume { ptr, i32 } %39
}