; Function Attrs: mustprogress uwtable
define dso_local void @_ZN33btConvexConcaveCollisionAlgorithmC2ERK36btCollisionAlgorithmConstructionInfoPK24btCollisionObjectWrapperS5_b(ptr noundef nonnull align 8 dereferenceable(113) %0, ptr noundef nonnull align 8 dereferenceable(16) %1, ptr noundef %2, ptr noundef %3, i1 noundef zeroext %4) unnamed_addr #0 align 2 personality ptr @__gxx_personality_v0 {
  tail call void @_ZN30btActivatingCollisionAlgorithmC2ERK36btCollisionAlgorithmConstructionInfoPK24btCollisionObjectWrapperS5_(ptr noundef nonnull align 8 dereferenceable(16) %0, ptr noundef nonnull align 8 dereferenceable(16) %1, ptr noundef %2, ptr noundef %3)
  store ptr getelementptr inbounds nuw inrange(-16, 40) (i8, ptr @_ZTV33btConvexConcaveCollisionAlgorithm, i64 16), ptr %0, align 8, !tbaa !4
  %6 = getelementptr inbounds nuw i8, ptr %0, i64 16
  %7 = load ptr, ptr %1, align 8, !tbaa !7
  store ptr getelementptr inbounds nuw inrange(-16, 24) (i8, ptr @_ZTV24btConvexTriangleCallback, i64 16), ptr %6, align 8, !tbaa !4
  %8 = getelementptr inbounds nuw i8, ptr %0, i64 80
  store ptr %7, ptr %8, align 8, !tbaa !13
  %9 = getelementptr inbounds nuw i8, ptr %0, i64 88
  store ptr null, ptr %9, align 8, !tbaa !22
  %10 = select i1 %4, ptr %3, ptr %2
  %11 = getelementptr inbounds nuw i8, ptr %0, i64 56
  store ptr %10, ptr %11, align 8, !tbaa !23
  %12 = select i1 %4, ptr %2, ptr %3
  %13 = getelementptr inbounds nuw i8, ptr %0, i64 64
  store ptr %12, ptr %13, align 8, !tbaa !24
  %14 = getelementptr inbounds nuw i8, ptr %10, i64 16
  %15 = load ptr, ptr %14, align 8, !tbaa !25
  %16 = getelementptr inbounds nuw i8, ptr %12, i64 16
  %17 = load ptr, ptr %16, align 8, !tbaa !25
  %18 = load ptr, ptr %7, align 8, !tbaa !4
  %19 = getelementptr inbounds nuw i8, ptr %18, i64 24
  %20 = load ptr, ptr %19, align 8
  %21 = invoke noundef ptr %20(ptr noundef nonnull align 8 dereferenceable(8) %7, ptr noundef %15, ptr noundef %17)
          to label %22 unwind label %.body

22:                                               ; preds = %5
  %23 = getelementptr inbounds nuw i8, ptr %0, i64 104
  store ptr %21, ptr %23, align 8, !tbaa !30
  %24 = load ptr, ptr %8, align 8, !tbaa !13
  %25 = load ptr, ptr %24, align 8, !tbaa !4
  %26 = getelementptr inbounds nuw i8, ptr %25, i64 40
  %27 = load ptr, ptr %26, align 8
  invoke void %27(ptr noundef nonnull align 8 dereferenceable(8) %24, ptr noundef %21)
          to label %_ZN24btConvexTriangleCallbackC2EP12btDispatcherPK24btCollisionObjectWrapperS4_b.exit unwind label %.body

.body:                                            ; preds = %22, %5
  %28 = landingpad { ptr, i32 }
          cleanup
  tail call void @_ZN18btTriangleCallbackD2Ev(ptr noundef nonnull align 8 dereferenceable(96) %6) #15
  tail call void @_ZN30btActivatingCollisionAlgorithmD2Ev(ptr noundef nonnull align 8 dereferenceable(16) %0) #15
  resume { ptr, i32 } %28

_ZN24btConvexTriangleCallbackC2EP12btDispatcherPK24btCollisionObjectWrapperS4_b.exit: ; preds = %22
  %29 = zext i1 %4 to i8
  %30 = getelementptr inbounds nuw i8, ptr %0, i64 112
  store i8 %29, ptr %30, align 8, !tbaa !31
  ret void
}